target datalayout = "e-m:e-p270:32:32-p271:32:32-p272:64:64-i64:64-i128:128-f80:128-n8:16:32:64-S128"
target triple = "x86_64-pc-linux-gnu"

; Function Attrs: nounwind uwtable
define internal i32 @authorizer(ptr noundef %0, i32 noundef %1, ptr noundef %2, ptr noundef %3, ptr noundef %4, ptr noundef %5) #0 {
  %7 = alloca i32, align 4
  %8 = alloca ptr, align 8
  %9 = alloca i32, align 4
  %10 = alloca ptr, align 8
  %11 = alloca ptr, align 8
  %12 = alloca ptr, align 8
  %13 = alloca ptr, align 8
  %14 = alloca ptr, align 8
  store ptr %0, ptr %8, align 8
  store i32 %1, ptr %9, align 4
  store ptr %2, ptr %10, align 8
  store ptr %3, ptr %11, align 8
  store ptr %4, ptr %12, align 8
  store ptr %5, ptr %13, align 8
  %15 = load i32, ptr %9, align 4
  switch i32 %15, label %24 [
    i32 24, label %16
  ]

16:                                               ; preds = %6
  %17 = load ptr, ptr %10, align 8
  %18 = call ptr @make_filename_safe(ptr noundef %17)
  store ptr %18, ptr %14, align 8
  %19 = load ptr, ptr %14, align 8
  %20 = icmp ne ptr %19, null
  br i1 %20, label %22, label %21

21:                                               ; preds = %16
  store i32 1, ptr %7, align 4
  br label %25

22:                                               ; preds = %16
  %23 = load ptr, ptr %14, align 8
  call void @_efree(ptr noundef %23)
  store i32 0, ptr %7, align 4
  br label %25

24:                                               ; preds = %6
  store i32 0, ptr %7, align 4
  br label %25

25:                                               ; preds = %24, %22, %21
  %26 = load i32, ptr %7, align 4
  ret i32 %26
}