; Function Attrs: nounwind uwtable
define internal noundef i32 @authorizer(ptr nocapture readnone %0, i32 noundef %1, ptr noundef %2, ptr nocapture readnone %3, ptr nocapture readnone %4, ptr nocapture readnone %5) #0 {
  %cond = icmp eq i32 %1, 24
  br i1 %cond, label %7, label %10

7:                                                ; preds = %6
  %8 = tail call fastcc ptr @make_filename_safe(ptr noundef %2)
  %.not = icmp eq ptr %8, null
  br i1 %.not, label %10, label %9

9:                                                ; preds = %7
  tail call void @_efree(ptr noundef nonnull %8) #11
  br label %10

10:                                               ; preds = %6, %7, %9
  %.0 = phi i32 [ 0, %9 ], [ 1, %7 ], [ 0, %6 ]
  ret i32 %.0
}